target datalayout = "e-m:e-p270:32:32-p271:32:32-p272:64:64-i64:64-i128:128-f80:128-n8:16:32:64-S128"
target triple = "x86_64-pc-linux-gnu"

%struct.slurm_opt_t = type { ptr, ptr, ptr, ptr, ptr, ptr, ptr, ptr, i32, ptr, ptr, ptr, ptr, i32, i32, ptr, i32, i8, i8, i32, i8, i32, i32, ptr, i8, i32, i32, i64, i32, i32, i32, i32, i32, i32, ptr, i32, ptr, i8, i32, i32, ptr, i32, i32, i32, ptr, ptr, i32, i32, ptr, ptr, ptr, i32, i16, i16, i16, i8, i8, ptr, i8, i16, ptr, ptr, i32, i32, i32, ptr, ptr, ptr, ptr, ptr, ptr, i32, i64, i64, i64, i16, i64, ptr, ptr, ptr, ptr, ptr, ptr, ptr, i8, ptr, ptr, ptr, ptr, i8, i64, ptr, i16, ptr, i32, i32, ptr, ptr, i32, i32, i32, ptr, i32, i32, i32, i32, i32, ptr, i64, i32, i16, i32, ptr, ptr, ptr, ptr, ptr, i16, ptr, ptr, i16, i8, ptr, ptr, ptr, ptr }
%struct.allocation_info = type { ptr, ptr, i32, ptr, i16, i16, i16, i16, i32, ptr, %struct.slurm_step_id_msg, i32, ptr, i32, ptr }
%struct.slurm_step_id_msg = type { i64, i32, i32, i32 }
%struct.srun_job = type { %struct.slurm_step_id_msg, i32, i32, ptr, i32, i32, i32, i32, ptr, ptr, ptr, ptr, i32, i32, i32, i16, i16, i16, i16, i32, %union.pthread_mutex_t, %union.pthread_cond_t, i32, ptr, ptr, ptr, ptr, ptr, ptr, i32, i16, i16, i16, ptr, ptr, ptr, ptr, i32, ptr, i32, ptr }
%union.pthread_mutex_t = type { %struct.__pthread_mutex_s }
%struct.__pthread_mutex_s = type { i32, i32, i32, i32, i32, i16, i16, %struct.__pthread_internal_list }
%struct.__pthread_internal_list = type { ptr, ptr }
%union.pthread_cond_t = type { %struct.__pthread_cond_s }
%struct.__pthread_cond_s = type { %union.__atomic_wide_counter, %union.__atomic_wide_counter, [2 x i32], [2 x i32], i32, i32, [2 x i32] }
%union.__atomic_wide_counter = type { i64 }

@.str = private unnamed_addr constant [11 x i8] c"srun_job.c\00", align 1
@__func__.job_create_noalloc = private unnamed_addr constant [19 x i8] c"job_create_noalloc\00", align 1
@opt = external global %struct.slurm_opt_t, align 8
@.str.1 = private unnamed_addr constant [33 x i8] c"Invalid node list `%s' specified\00", align 1

; Function Attrs: nounwind uwtable
define dso_local void @job_update_io_fnames(ptr noundef %0, ptr noundef %1) #0 {
  %3 = alloca ptr, align 8
  %4 = alloca ptr, align 8
  store ptr %0, ptr %3, align 8
  store ptr %1, ptr %4, align 8
  %5 = load ptr, ptr %3, align 8
  %6 = load ptr, ptr %4, align 8
  %7 = getelementptr inbounds nuw %struct.slurm_opt_t, ptr %6, i32 0, i32 124
  %8 = load ptr, ptr %7, align 8
  %9 = load ptr, ptr %4, align 8
  %10 = getelementptr inbounds nuw %struct.slurm_opt_t, ptr %9, i32 0, i32 16
  %11 = load i32, ptr %10, align 8
  %12 = call ptr @fname_create(ptr noundef %5, ptr noundef %8, i32 noundef %11)
  %13 = load ptr, ptr %3, align 8
  %14 = getelementptr inbounds nuw %struct.srun_job, ptr %13, i32 0, i32 26
  store ptr %12, ptr %14, align 8
  %15 = load ptr, ptr %3, align 8
  %16 = load ptr, ptr %4, align 8
  %17 = getelementptr inbounds nuw %struct.slurm_opt_t, ptr %16, i32 0, i32 125
  %18 = load ptr, ptr %17, align 8
  %19 = load ptr, ptr %4, align 8
  %20 = getelementptr inbounds nuw %struct.slurm_opt_t, ptr %19, i32 0, i32 16
  %21 = load i32, ptr %20, align 8
  %22 = call ptr @fname_create(ptr noundef %15, ptr noundef %18, i32 noundef %21)
  %23 = load ptr, ptr %3, align 8
  %24 = getelementptr inbounds nuw %struct.srun_job, ptr %23, i32 0, i32 27
  store ptr %22, ptr %24, align 8
  %25 = load ptr, ptr %4, align 8
  %26 = getelementptr inbounds nuw %struct.slurm_opt_t, ptr %25, i32 0, i32 123
  %27 = load ptr, ptr %26, align 8
  %28 = icmp ne ptr %27, null
  br i1 %28, label %29, label %38

29:                                               ; preds = %2
  %30 = load ptr, ptr %3, align 8
  %31 = load ptr, ptr %4, align 8
  %32 = getelementptr inbounds nuw %struct.slurm_opt_t, ptr %31, i32 0, i32 123
  %33 = load ptr, ptr %32, align 8
  %34 = load ptr, ptr %4, align 8
  %35 = getelementptr inbounds nuw %struct.slurm_opt_t, ptr %34, i32 0, i32 16
  %36 = load i32, ptr %35, align 8
  %37 = call ptr @fname_create(ptr noundef %30, ptr noundef %33, i32 noundef %36)
  br label %42

38:                                               ; preds = %2
  %39 = load ptr, ptr %3, align 8
  %40 = getelementptr inbounds nuw %struct.srun_job, ptr %39, i32 0, i32 27
  %41 = load ptr, ptr %40, align 8
  br label %42

42:                                               ; preds = %38, %29
  %43 = phi ptr [ %37, %29 ], [ %41, %38 ]
  %44 = load ptr, ptr %3, align 8
  %45 = getelementptr inbounds nuw %struct.srun_job, ptr %44, i32 0, i32 28
  store ptr %43, ptr %45, align 8
  ret void
}

; Function Attrs: nounwind uwtable
define dso_local ptr @job_create_noalloc() #0 {
  %1 = alloca ptr, align 8
  %2 = alloca ptr, align 8
  %3 = alloca [1 x i16], align 2
  %4 = alloca [1 x i32], align 4
  %5 = alloca ptr, align 8
  %6 = alloca ptr, align 8
  call void @llvm.lifetime.start.p0(i64 8, ptr %1) #10
  store ptr null, ptr %1, align 8
  call void @llvm.lifetime.start.p0(i64 8, ptr %2) #10
  %7 = call ptr @slurm_xcalloc(i64 noundef 1, i64 noundef 112, i1 noundef zeroext true, i1 noundef zeroext false, ptr noundef @.str, i32 noundef 161, ptr noundef @__func__.job_create_noalloc)
  store ptr %7, ptr %2, align 8
  call void @llvm.lifetime.start.p0(i64 2, ptr %3) #10
  call void @llvm.lifetime.start.p0(i64 4, ptr %4) #10
  call void @llvm.lifetime.start.p0(i64 8, ptr %5) #10
  store ptr @opt, ptr %5, align 8
  call void @llvm.lifetime.start.p0(i64 8, ptr %6) #10
  %8 = load ptr, ptr %5, align 8
  %9 = getelementptr inbounds nuw %struct.slurm_opt_t, ptr %8, i32 0, i32 86
  %10 = load ptr, ptr %9, align 8
  %11 = call ptr @hostlist_create(ptr noundef %10)
  store ptr %11, ptr %6, align 8
  %12 = load ptr, ptr %6, align 8
  %13 = icmp ne ptr %12, null
  br i1 %13, label %19, label %14

14:                                               ; preds = %0
  %15 = load ptr, ptr %5, align 8
  %16 = getelementptr inbounds nuw %struct.slurm_opt_t, ptr %15, i32 0, i32 86
  %17 = load ptr, ptr %16, align 8
  %18 = call i32 (ptr, ...) @error(ptr noundef @.str.1, ptr noundef %17)
  br label %123

19:                                               ; preds = %0
  %20 = call i32 @getpid() #10
  %21 = sext i32 %20 to i64
  call void @srand48(i64 noundef %21) #10
  %22 = call i64 @lrand48() #10
  %23 = trunc i64 %22 to i32
  %24 = urem i32 %23, 65534
  %25 = add i32 -65536, %24
  %26 = load ptr, ptr %2, align 8
  %27 = getelementptr inbounds nuw %struct.allocation_info, ptr %26, i32 0, i32 10
  %28 = getelementptr inbounds nuw %struct.slurm_step_id_msg, ptr %27, i32 0, i32 1
  store i32 %25, ptr %28, align 8
  %29 = call i64 @lrand48() #10
  %30 = trunc i64 %29 to i32
  %31 = load ptr, ptr %2, align 8
  %32 = getelementptr inbounds nuw %struct.allocation_info, ptr %31, i32 0, i32 10
  %33 = getelementptr inbounds nuw %struct.slurm_step_id_msg, ptr %32, i32 0, i32 3
  store i32 %30, ptr %33, align 8
  %34 = load ptr, ptr %2, align 8
  %35 = getelementptr inbounds nuw %struct.allocation_info, ptr %34, i32 0, i32 10
  %36 = getelementptr inbounds nuw %struct.slurm_step_id_msg, ptr %35, i32 0, i32 2
  store i32 -2, ptr %36, align 4
  %37 = load ptr, ptr %5, align 8
  %38 = getelementptr inbounds nuw %struct.slurm_opt_t, ptr %37, i32 0, i32 86
  %39 = load ptr, ptr %38, align 8
  %40 = load ptr, ptr %2, align 8
  %41 = getelementptr inbounds nuw %struct.allocation_info, ptr %40, i32 0, i32 3
  store ptr %39, ptr %41, align 8
  %42 = load ptr, ptr %6, align 8
  %43 = call i32 @hostlist_count(ptr noundef %42)
  %44 = load ptr, ptr %2, align 8
  %45 = getelementptr inbounds nuw %struct.allocation_info, ptr %44, i32 0, i32 2
  store i32 %43, ptr %45, align 8
  %46 = call i32 @getuid() #10
  %47 = load ptr, ptr %2, align 8
  %48 = getelementptr inbounds nuw %struct.allocation_info, ptr %47, i32 0, i32 11
  store i32 %46, ptr %48, align 8
  %49 = load ptr, ptr %2, align 8
  %50 = getelementptr inbounds nuw %struct.allocation_info, ptr %49, i32 0, i32 11
  %51 = load i32, ptr %50, align 8
  %52 = call ptr @uid_to_string_or_null(i32 noundef %51)
  %53 = load ptr, ptr %2, align 8
  %54 = getelementptr inbounds nuw %struct.allocation_info, ptr %53, i32 0, i32 12
  store ptr %52, ptr %54, align 8
  %55 = call i32 @getgid() #10
  %56 = load ptr, ptr %2, align 8
  %57 = getelementptr inbounds nuw %struct.allocation_info, ptr %56, i32 0, i32 13
  store i32 %55, ptr %57, align 8
  %58 = load ptr, ptr %2, align 8
  %59 = getelementptr inbounds nuw %struct.allocation_info, ptr %58, i32 0, i32 13
  %60 = load i32, ptr %59, align 8
  %61 = call ptr @gid_to_string_or_null(i32 noundef %60)
  %62 = load ptr, ptr %2, align 8
  %63 = getelementptr inbounds nuw %struct.allocation_info, ptr %62, i32 0, i32 14
  store ptr %61, ptr %63, align 8
  %64 = load ptr, ptr %6, align 8
  call void @hostlist_destroy(ptr noundef %64)
  %65 = load ptr, ptr %5, align 8
  %66 = getelementptr inbounds nuw %struct.slurm_opt_t, ptr %65, i32 0, i32 16
  %67 = load i32, ptr %66, align 8
  %68 = load ptr, ptr %2, align 8
  %69 = getelementptr inbounds nuw %struct.allocation_info, ptr %68, i32 0, i32 2
  %70 = load i32, ptr %69, align 8
  %71 = add i32 %67, %70
  %72 = sub i32 %71, 1
  %73 = load ptr, ptr %2, align 8
  %74 = getelementptr inbounds nuw %struct.allocation_info, ptr %73, i32 0, i32 2
  %75 = load i32, ptr %74, align 8
  %76 = udiv i32 %72, %75
  %77 = trunc i32 %76 to i16
  %78 = getelementptr inbounds [1 x i16], ptr %3, i64 0, i64 0
  store i16 %77, ptr %78, align 2
  %79 = getelementptr inbounds [1 x i16], ptr %3, i64 0, i64 0
  %80 = load ptr, ptr %2, align 8
  %81 = getelementptr inbounds nuw %struct.allocation_info, ptr %80, i32 0, i32 0
  store ptr %79, ptr %81, align 8
  %82 = load ptr, ptr %2, align 8
  %83 = getelementptr inbounds nuw %struct.allocation_info, ptr %82, i32 0, i32 2
  %84 = load i32, ptr %83, align 8
  %85 = getelementptr inbounds [1 x i32], ptr %4, i64 0, i64 0
  store i32 %84, ptr %85, align 4
  %86 = getelementptr inbounds [1 x i32], ptr %4, i64 0, i64 0
  %87 = load ptr, ptr %2, align 8
  %88 = getelementptr inbounds nuw %struct.allocation_info, ptr %87, i32 0, i32 1
  store ptr %86, ptr %88, align 8
  %89 = load ptr, ptr %2, align 8
  %90 = getelementptr inbounds nuw %struct.allocation_info, ptr %89, i32 0, i32 8
  store i32 1, ptr %90, align 8
  %91 = load ptr, ptr %2, align 8
  %92 = load ptr, ptr %5, align 8
  %93 = call ptr @_job_create_structure(ptr noundef %91, ptr noundef %92)
  store ptr %93, ptr %1, align 8
  %94 = load ptr, ptr %1, align 8
  %95 = icmp ne ptr %94, null
  br i1 %95, label %96, label %99

96:                                               ; preds = %19
  %97 = load ptr, ptr %1, align 8
  %98 = load ptr, ptr %5, align 8
  call void @job_update_io_fnames(ptr noundef %97, ptr noundef %98)
  br label %99

99:                                               ; preds = %96, %19
  %100 = load ptr, ptr %1, align 8
  %101 = icmp ne ptr %100, null
  br i1 %101, label %102, label %122

102:                                              ; preds = %99
  %103 = load ptr, ptr %1, align 8
  %104 = getelementptr inbounds nuw %struct.srun_job, ptr %103, i32 0, i32 14
  %105 = load i32, ptr %104, align 8
  %106 = icmp eq i32 %105, -2
  br i1 %106, label %107, label %122

107:                                              ; preds = %102
  %108 = load ptr, ptr %2, align 8
  %109 = getelementptr inbounds nuw %struct.allocation_info, ptr %108, i32 0, i32 2
  %110 = load i32, ptr %109, align 8
  %111 = load ptr, ptr %1, align 8
  %112 = getelementptr inbounds nuw %struct.srun_job, ptr %111, i32 0, i32 14
  store i32 %110, ptr %112, align 8
  %113 = load ptr, ptr %5, align 8
  %114 = getelementptr inbounds nuw %struct.slurm_opt_t, ptr %113, i32 0, i32 19
  %115 = load i32, ptr %114, align 8
  %116 = load ptr, ptr %1, align 8
  %117 = getelementptr inbounds nuw %struct.srun_job, ptr %116, i32 0, i32 14
  %118 = load i32, ptr %117, align 8
  %119 = mul i32 %115, %118
  %120 = load ptr, ptr %1, align 8
  %121 = getelementptr inbounds nuw %struct.srun_job, ptr %120, i32 0, i32 12
  store i32 %119, ptr %121, align 8
  br label %122

122:                                              ; preds = %107, %102, %99
  br label %123

123:                                              ; preds = %122, %14
  call void @slurm_xfree(ptr noundef %2)
  %124 = load ptr, ptr %1, align 8
  call void @llvm.lifetime.end.p0(i64 8, ptr %6) #10
  call void @llvm.lifetime.end.p0(i64 8, ptr %5) #10
  call void @llvm.lifetime.end.p0(i64 4, ptr %4) #10
  call void @llvm.lifetime.end.p0(i64 2, ptr %3) #10
  call void @llvm.lifetime.end.p0(i64 8, ptr %2) #10
  call void @llvm.lifetime.end.p0(i64 8, ptr %1) #10
  ret ptr %124
}