; Function Attrs: nounwind uwtable
define dso_local ptr @job_create_noalloc() local_unnamed_addr #0 {
  %1 = alloca ptr, align 8
  %2 = alloca [1 x i16], align 2
  %3 = alloca [1 x i32], align 4
  call void @llvm.lifetime.start.p0(i64 8, ptr nonnull %1) #15
  %4 = tail call ptr @slurm_xcalloc(i64 noundef 1, i64 noundef 112, i1 noundef zeroext true, i1 noundef zeroext false, ptr noundef nonnull @.str, i32 noundef 161, ptr noundef nonnull @__func__.job_create_noalloc) #15
  store ptr %4, ptr %1, align 8
  call void @llvm.lifetime.start.p0(i64 2, ptr nonnull %2) #15
  call void @llvm.lifetime.start.p0(i64 4, ptr nonnull %3) #15
  %5 = load ptr, ptr getelementptr inbounds nuw (i8, ptr @opt, i64 544), align 8
  %6 = tail call ptr @hostlist_create(ptr noundef %5) #15
  %.not = icmp eq ptr %6, null
  br i1 %.not, label %7, label %10

7:                                                ; preds = %0
  %8 = load ptr, ptr getelementptr inbounds nuw (i8, ptr @opt, i64 544), align 8
  %9 = tail call i32 (ptr, ...) @error(ptr noundef nonnull @.str.1, ptr noundef %8) #15
  br label %.critedge

10:                                               ; preds = %0
  %11 = tail call i32 @getpid() #15
  %12 = sext i32 %11 to i64
  tail call void @srand48(i64 noundef %12) #15
  %13 = tail call i64 @lrand48() #15
  %14 = trunc i64 %13 to i32
  %15 = urem i32 %14, 65534
  %16 = or disjoint i32 %15, -65536
  %17 = getelementptr inbounds nuw i8, ptr %4, i64 64
  store i32 %16, ptr %17, align 8
  %18 = tail call i64 @lrand48() #15
  %19 = trunc i64 %18 to i32
  %20 = getelementptr inbounds nuw i8, ptr %4, i64 72
  store i32 %19, ptr %20, align 8
  %21 = getelementptr inbounds nuw i8, ptr %4, i64 68
  store i32 -2, ptr %21, align 4
  %22 = load ptr, ptr getelementptr inbounds nuw (i8, ptr @opt, i64 544), align 8
  %23 = getelementptr inbounds nuw i8, ptr %4, i64 24
  store ptr %22, ptr %23, align 8
  %24 = tail call i32 @hostlist_count(ptr noundef nonnull %6) #15
  %25 = getelementptr inbounds nuw i8, ptr %4, i64 16
  store i32 %24, ptr %25, align 8
  %26 = tail call i32 @getuid() #15
  %27 = getelementptr inbounds nuw i8, ptr %4, i64 80
  store i32 %26, ptr %27, align 8
  %28 = tail call ptr @uid_to_string_or_null(i32 noundef %26) #15
  %29 = getelementptr inbounds nuw i8, ptr %4, i64 88
  store ptr %28, ptr %29, align 8
  %30 = tail call i32 @getgid() #15
  %31 = getelementptr inbounds nuw i8, ptr %4, i64 96
  store i32 %30, ptr %31, align 8
  %32 = tail call ptr @gid_to_string_or_null(i32 noundef %30) #15
  %33 = getelementptr inbounds nuw i8, ptr %4, i64 104
  store ptr %32, ptr %33, align 8
  tail call void @hostlist_destroy(ptr noundef nonnull %6) #15
  %34 = load i32, ptr getelementptr inbounds nuw (i8, ptr @opt, i64 120), align 8
  %35 = load i32, ptr %25, align 8
  %36 = add i32 %34, -1
  %37 = add i32 %36, %35
  %38 = udiv i32 %37, %35
  %39 = trunc i32 %38 to i16
  store i16 %39, ptr %2, align 2
  store ptr %2, ptr %4, align 8
  store i32 %35, ptr %3, align 4
  %40 = getelementptr inbounds nuw i8, ptr %4, i64 8
  store ptr %3, ptr %40, align 8
  %41 = getelementptr inbounds nuw i8, ptr %4, i64 40
  store i32 1, ptr %41, align 8
  %42 = call fastcc ptr @_job_create_structure(ptr noundef nonnull %4, ptr noundef nonnull @opt)
  %.not20 = icmp eq ptr %42, null
  br i1 %.not20, label %.critedge, label %43

43:                                               ; preds = %10
  %44 = load ptr, ptr getelementptr inbounds nuw (i8, ptr @opt, i64 800), align 8
  %45 = load i32, ptr getelementptr inbounds nuw (i8, ptr @opt, i64 120), align 8
  %46 = call ptr @fname_create(ptr noundef nonnull %42, ptr noundef %44, i32 noundef %45) #15
  %47 = getelementptr inbounds nuw i8, ptr %42, i64 232
  store ptr %46, ptr %47, align 8
  %48 = load ptr, ptr getelementptr inbounds nuw (i8, ptr @opt, i64 808), align 8
  %49 = load i32, ptr getelementptr inbounds nuw (i8, ptr @opt, i64 120), align 8
  %50 = call ptr @fname_create(ptr noundef nonnull %42, ptr noundef %48, i32 noundef %49) #15
  %51 = getelementptr inbounds nuw i8, ptr %42, i64 240
  store ptr %50, ptr %51, align 8
  %52 = load ptr, ptr getelementptr inbounds nuw (i8, ptr @opt, i64 792), align 8
  %.not.i = icmp eq ptr %52, null
  br i1 %.not.i, label %job_update_io_fnames.exit, label %53

53:                                               ; preds = %43
  %54 = load i32, ptr getelementptr inbounds nuw (i8, ptr @opt, i64 120), align 8
  %55 = call ptr @fname_create(ptr noundef nonnull %42, ptr noundef nonnull %52, i32 noundef %54) #15
  br label %job_update_io_fnames.exit

job_update_io_fnames.exit:                        ; preds = %43, %53
  %56 = phi ptr [ %55, %53 ], [ %50, %43 ]
  %57 = getelementptr inbounds nuw i8, ptr %42, i64 248
  store ptr %56, ptr %57, align 8
  %58 = getelementptr inbounds nuw i8, ptr %42, i64 96
  %59 = load i32, ptr %58, align 8
  %60 = icmp eq i32 %59, -2
  br i1 %60, label %61, label %.critedge

61:                                               ; preds = %job_update_io_fnames.exit
  %62 = load i32, ptr %25, align 8
  store i32 %62, ptr %58, align 8
  %63 = load i32, ptr getelementptr inbounds nuw (i8, ptr @opt, i64 128), align 8
  %64 = mul i32 %63, %62
  %65 = getelementptr inbounds nuw i8, ptr %42, i64 88
  store i32 %64, ptr %65, align 8
  br label %.critedge

.critedge:                                        ; preds = %10, %job_update_io_fnames.exit, %61, %7
  %.0 = phi ptr [ %42, %61 ], [ %42, %job_update_io_fnames.exit ], [ null, %7 ], [ null, %10 ]
  call void @slurm_xfree(ptr noundef nonnull %1) #15
  call void @llvm.lifetime.end.p0(i64 4, ptr nonnull %3) #15
  call void @llvm.lifetime.end.p0(i64 2, ptr nonnull %2) #15
  call void @llvm.lifetime.end.p0(i64 8, ptr nonnull %1) #15
  ret ptr %.0
}